Archive member included to satisfy reference by file (symbol)

/usr/bin/../lib/gcc/arm-none-eabi/6.3.1/../../../../arm-none-eabi/lib/thumb/v7e-m/libg.a(lib_a-errno.o)
                              lib_build/syscalls.o (__errno)
/usr/bin/../lib/gcc/arm-none-eabi/6.3.1/../../../../arm-none-eabi/lib/thumb/v7e-m/libg.a(lib_a-impure.o)
                              /usr/bin/../lib/gcc/arm-none-eabi/6.3.1/../../../../arm-none-eabi/lib/thumb/v7e-m/libg.a(lib_a-errno.o) (_impure_ptr)
/usr/bin/../lib/gcc/arm-none-eabi/6.3.1/../../../../arm-none-eabi/lib/thumb/v7e-m/libg.a(lib_a-init.o)
                              lib_build/startup_XMC4500.o (__libc_init_array)

Discarded input sections

 .group         0x0000000000000000        0x8 build/ga53keb_PartA.o
 .group         0x0000000000000000        0x8 build/ga53keb_PartA.o
 .group         0x0000000000000000        0x8 build/ga53keb_PartA.o
 .group         0x0000000000000000        0x8 build/ga53keb_PartA.o
 .group         0x0000000000000000        0x8 build/ga53keb_PartA.o
 .group         0x0000000000000000        0x8 build/ga53keb_PartA.o
 .group         0x0000000000000000        0x8 build/ga53keb_PartA.o
 .group         0x0000000000000000        0x8 build/ga53keb_PartA.o
 .group         0x0000000000000000        0x8 build/ga53keb_PartA.o
 .group         0x0000000000000000        0x8 build/ga53keb_PartA.o
 .group         0x0000000000000000        0x8 build/ga53keb_PartA.o
 .group         0x0000000000000000        0x8 build/ga53keb_PartA.o
 .group         0x0000000000000000        0x8 build/ga53keb_PartA.o
 .group         0x0000000000000000        0x8 build/ga53keb_PartA.o
 .group         0x0000000000000000        0x8 build/ga53keb_PartA.o
 .group         0x0000000000000000        0x8 build/ga53keb_PartA.o
 .group         0x0000000000000000        0x8 build/ga53keb_PartA.o
 .group         0x0000000000000000        0x8 build/ga53keb_PartA.o
 .group         0x0000000000000000        0x8 build/ga53keb_PartA.o
 .group         0x0000000000000000        0x8 build/ga53keb_PartA.o
 .group         0x0000000000000000        0x8 build/ga53keb_PartA.o
 .group         0x0000000000000000        0x8 build/ga53keb_PartA.o
 .group         0x0000000000000000        0x8 build/ga53keb_PartA.o
 .group         0x0000000000000000        0x8 build/ga53keb_PartA.o
 .group         0x0000000000000000        0x8 build/ga53keb_PartA.o
 .group         0x0000000000000000        0x8 build/ga53keb_PartA.o
 .group         0x0000000000000000        0x8 build/ga53keb_PartA.o
 .group         0x0000000000000000        0x8 build/ga53keb_PartA.o
 .group         0x0000000000000000        0x8 build/ga53keb_PartA.o
 .group         0x0000000000000000        0x8 build/ga53keb_PartA.o
 .group         0x0000000000000000        0x8 build/ga53keb_PartA.o
 .group         0x0000000000000000        0x8 build/ga53keb_PartA.o
 .comment       0x0000000000000000       0x80 build/ga53keb_PartA.o
 .group         0x0000000000000000        0x8 lib_build/xmc_gpio.o
 .group         0x0000000000000000        0x8 lib_build/xmc_gpio.o
 .group         0x0000000000000000        0x8 lib_build/xmc_gpio.o
 .group         0x0000000000000000        0x8 lib_build/xmc_gpio.o
 .group         0x0000000000000000        0x8 lib_build/xmc_gpio.o
 .group         0x0000000000000000        0x8 lib_build/xmc_gpio.o
 .group         0x0000000000000000        0x8 lib_build/xmc_gpio.o
 .group         0x0000000000000000        0x8 lib_build/xmc_gpio.o
 .group         0x0000000000000000        0x8 lib_build/xmc_gpio.o
 .group         0x0000000000000000        0x8 lib_build/xmc_gpio.o
 .group         0x0000000000000000        0x8 lib_build/xmc_gpio.o
 .group         0x0000000000000000        0x8 lib_build/xmc_gpio.o
 .group         0x0000000000000000        0x8 lib_build/xmc_gpio.o
 .group         0x0000000000000000        0x8 lib_build/xmc_gpio.o
 .group         0x0000000000000000        0x8 lib_build/xmc_gpio.o
 .group         0x0000000000000000        0x8 lib_build/xmc_gpio.o
 .group         0x0000000000000000        0x8 lib_build/xmc_gpio.o
 .group         0x0000000000000000        0x8 lib_build/xmc_gpio.o
 .group         0x0000000000000000        0x8 lib_build/xmc_gpio.o
 .group         0x0000000000000000        0x8 lib_build/xmc_gpio.o
 .group         0x0000000000000000        0x8 lib_build/xmc_gpio.o
 .group         0x0000000000000000        0x8 lib_build/xmc_gpio.o
 .group         0x0000000000000000        0x8 lib_build/xmc_gpio.o
 .group         0x0000000000000000        0x8 lib_build/xmc_gpio.o
 .group         0x0000000000000000        0x8 lib_build/xmc_gpio.o
 .group         0x0000000000000000        0x8 lib_build/xmc_gpio.o
 .group         0x0000000000000000        0x8 lib_build/xmc_gpio.o
 .group         0x0000000000000000        0x8 lib_build/xmc_gpio.o
 .group         0x0000000000000000        0x8 lib_build/xmc_gpio.o
 .group         0x0000000000000000        0x8 lib_build/xmc_gpio.o
 .group         0x0000000000000000        0x8 lib_build/xmc_gpio.o
 .group         0x0000000000000000        0x8 lib_build/xmc_gpio.o
 .debug_macro   0x0000000000000000      0x8aa lib_build/xmc_gpio.o
 .debug_macro   0x0000000000000000      0x16d lib_build/xmc_gpio.o
 .debug_macro   0x0000000000000000       0x22 lib_build/xmc_gpio.o
 .debug_macro   0x0000000000000000       0x87 lib_build/xmc_gpio.o
 .debug_macro   0x0000000000000000       0x51 lib_build/xmc_gpio.o
 .debug_macro   0x0000000000000000       0xef lib_build/xmc_gpio.o
 .debug_macro   0x0000000000000000       0x6a lib_build/xmc_gpio.o
 .debug_macro   0x0000000000000000      0x1df lib_build/xmc_gpio.o
 .debug_macro   0x0000000000000000       0x22 lib_build/xmc_gpio.o
 .debug_macro   0x0000000000000000       0x58 lib_build/xmc_gpio.o
 .debug_macro   0x0000000000000000       0x35 lib_build/xmc_gpio.o
 .debug_macro   0x0000000000000000       0x9c lib_build/xmc_gpio.o
 .debug_macro   0x0000000000000000       0x58 lib_build/xmc_gpio.o
 .debug_macro   0x0000000000000000       0x1f lib_build/xmc_gpio.o
 .debug_macro   0x0000000000000000       0x43 lib_build/xmc_gpio.o
 .debug_macro   0x0000000000000000       0x20 lib_build/xmc_gpio.o
 .debug_macro   0x0000000000000000      0x187 lib_build/xmc_gpio.o
 .debug_macro   0x0000000000000000      0x353 lib_build/xmc_gpio.o
 .debug_macro   0x0000000000000000       0x10 lib_build/xmc_gpio.o
 .debug_macro   0x0000000000000000       0x35 lib_build/xmc_gpio.o
 .debug_macro   0x0000000000000000      0x167 lib_build/xmc_gpio.o
 .debug_macro   0x0000000000000000       0x2d lib_build/xmc_gpio.o
 .debug_macro   0x0000000000000000       0x28 lib_build/xmc_gpio.o
 .debug_macro   0x0000000000000000       0xaf lib_build/xmc_gpio.o
 .debug_macro   0x0000000000000000      0xfe7 lib_build/xmc_gpio.o
 .debug_macro   0x0000000000000000       0x16 lib_build/xmc_gpio.o
 .debug_macro   0x0000000000000000    0x1474b lib_build/xmc_gpio.o
 .debug_macro   0x0000000000000000       0x12 lib_build/xmc_gpio.o
 .debug_macro   0x0000000000000000       0x4c lib_build/xmc_gpio.o
 .debug_macro   0x0000000000000000       0x22 lib_build/xmc_gpio.o
 .debug_macro   0x0000000000000000      0x861 lib_build/xmc_gpio.o
 .debug_macro   0x0000000000000000       0xa5 lib_build/xmc_gpio.o
 .comment       0x0000000000000000       0x80 lib_build/xmc_gpio.o
 .group         0x0000000000000000        0x8 lib_build/xmc4_gpio.o
 .group         0x0000000000000000        0x8 lib_build/xmc4_gpio.o
 .group         0x0000000000000000        0x8 lib_build/xmc4_gpio.o
 .group         0x0000000000000000        0x8 lib_build/xmc4_gpio.o
 .group         0x0000000000000000        0x8 lib_build/xmc4_gpio.o
 .group         0x0000000000000000        0x8 lib_build/xmc4_gpio.o
 .group         0x0000000000000000        0x8 lib_build/xmc4_gpio.o
 .group         0x0000000000000000        0x8 lib_build/xmc4_gpio.o
 .group         0x0000000000000000        0x8 lib_build/xmc4_gpio.o
 .group         0x0000000000000000        0x8 lib_build/xmc4_gpio.o
 .group         0x0000000000000000        0x8 lib_build/xmc4_gpio.o
 .group         0x0000000000000000        0x8 lib_build/xmc4_gpio.o
 .group         0x0000000000000000        0x8 lib_build/xmc4_gpio.o
 .group         0x0000000000000000        0x8 lib_build/xmc4_gpio.o
 .group         0x0000000000000000        0x8 lib_build/xmc4_gpio.o
 .group         0x0000000000000000        0x8 lib_build/xmc4_gpio.o
 .group         0x0000000000000000        0x8 lib_build/xmc4_gpio.o
 .group         0x0000000000000000        0x8 lib_build/xmc4_gpio.o
 .group         0x0000000000000000        0x8 lib_build/xmc4_gpio.o
 .group         0x0000000000000000        0x8 lib_build/xmc4_gpio.o
 .group         0x0000000000000000        0x8 lib_build/xmc4_gpio.o
 .group         0x0000000000000000        0x8 lib_build/xmc4_gpio.o
 .group         0x0000000000000000        0x8 lib_build/xmc4_gpio.o
 .group         0x0000000000000000        0x8 lib_build/xmc4_gpio.o
 .group         0x0000000000000000        0x8 lib_build/xmc4_gpio.o
 .group         0x0000000000000000        0x8 lib_build/xmc4_gpio.o
 .group         0x0000000000000000        0x8 lib_build/xmc4_gpio.o
 .group         0x0000000000000000        0x8 lib_build/xmc4_gpio.o
 .group         0x0000000000000000        0x8 lib_build/xmc4_gpio.o
 .group         0x0000000000000000        0x8 lib_build/xmc4_gpio.o
 .group         0x0000000000000000        0x8 lib_build/xmc4_gpio.o
 .group         0x0000000000000000        0x8 lib_build/xmc4_gpio.o
 .debug_macro   0x0000000000000000      0x8aa lib_build/xmc4_gpio.o
 .debug_macro   0x0000000000000000      0x16d lib_build/xmc4_gpio.o
 .debug_macro   0x0000000000000000       0x22 lib_build/xmc4_gpio.o
 .debug_macro   0x0000000000000000       0x87 lib_build/xmc4_gpio.o
 .debug_macro   0x0000000000000000       0x51 lib_build/xmc4_gpio.o
 .debug_macro   0x0000000000000000       0xef lib_build/xmc4_gpio.o
 .debug_macro   0x0000000000000000       0x6a lib_build/xmc4_gpio.o
 .debug_macro   0x0000000000000000      0x1df lib_build/xmc4_gpio.o
 .debug_macro   0x0000000000000000       0x22 lib_build/xmc4_gpio.o
 .debug_macro   0x0000000000000000       0x58 lib_build/xmc4_gpio.o
 .debug_macro   0x0000000000000000       0x35 lib_build/xmc4_gpio.o
 .debug_macro   0x0000000000000000       0x9c lib_build/xmc4_gpio.o
 .debug_macro   0x0000000000000000       0x58 lib_build/xmc4_gpio.o
 .debug_macro   0x0000000000000000       0x1f lib_build/xmc4_gpio.o
 .debug_macro   0x0000000000000000       0x43 lib_build/xmc4_gpio.o
 .debug_macro   0x0000000000000000       0x20 lib_build/xmc4_gpio.o
 .debug_macro   0x0000000000000000      0x187 lib_build/xmc4_gpio.o
 .debug_macro   0x0000000000000000      0x353 lib_build/xmc4_gpio.o
 .debug_macro   0x0000000000000000       0x10 lib_build/xmc4_gpio.o
 .debug_macro   0x0000000000000000       0x35 lib_build/xmc4_gpio.o
 .debug_macro   0x0000000000000000      0x167 lib_build/xmc4_gpio.o
 .debug_macro   0x0000000000000000       0x2d lib_build/xmc4_gpio.o
 .debug_macro   0x0000000000000000       0x28 lib_build/xmc4_gpio.o
 .debug_macro   0x0000000000000000       0xaf lib_build/xmc4_gpio.o
 .debug_macro   0x0000000000000000      0xfe7 lib_build/xmc4_gpio.o
 .debug_macro   0x0000000000000000       0x16 lib_build/xmc4_gpio.o
 .debug_macro   0x0000000000000000    0x1474b lib_build/xmc4_gpio.o
 .debug_macro   0x0000000000000000       0x12 lib_build/xmc4_gpio.o
 .debug_macro   0x0000000000000000       0x4c lib_build/xmc4_gpio.o
 .debug_macro   0x0000000000000000       0x22 lib_build/xmc4_gpio.o
 .debug_macro   0x0000000000000000      0x861 lib_build/xmc4_gpio.o
 .debug_macro   0x0000000000000000       0xa5 lib_build/xmc4_gpio.o
 .comment       0x0000000000000000       0x80 lib_build/xmc4_gpio.o
 .group         0x0000000000000000        0x8 lib_build/system_XMC4500.o
 .group         0x0000000000000000        0x8 lib_build/system_XMC4500.o
 .group         0x0000000000000000        0x8 lib_build/system_XMC4500.o
 .group         0x0000000000000000        0x8 lib_build/system_XMC4500.o
 .group         0x0000000000000000        0x8 lib_build/system_XMC4500.o
 .group         0x0000000000000000        0x8 lib_build/system_XMC4500.o
 .group         0x0000000000000000        0x8 lib_build/system_XMC4500.o
 .group         0x0000000000000000        0x8 lib_build/system_XMC4500.o
 .group         0x0000000000000000        0x8 lib_build/system_XMC4500.o
 .group         0x0000000000000000        0x8 lib_build/system_XMC4500.o
 .group         0x0000000000000000        0x8 lib_build/system_XMC4500.o
 .group         0x0000000000000000        0x8 lib_build/system_XMC4500.o
 .group         0x0000000000000000        0x8 lib_build/system_XMC4500.o
 .group         0x0000000000000000        0x8 lib_build/system_XMC4500.o
 .group         0x0000000000000000        0x8 lib_build/system_XMC4500.o
 .group         0x0000000000000000        0x8 lib_build/system_XMC4500.o
 .group         0x0000000000000000        0x8 lib_build/system_XMC4500.o
 .group         0x0000000000000000        0x8 lib_build/system_XMC4500.o
 .group         0x0000000000000000        0x8 lib_build/system_XMC4500.o
 .group         0x0000000000000000        0x8 lib_build/system_XMC4500.o
 .group         0x0000000000000000        0x8 lib_build/system_XMC4500.o
 .group         0x0000000000000000        0x8 lib_build/system_XMC4500.o
 .group         0x0000000000000000        0x8 lib_build/system_XMC4500.o
 .group         0x0000000000000000        0x8 lib_build/system_XMC4500.o
 .group         0x0000000000000000        0x8 lib_build/system_XMC4500.o
 .debug_macro   0x0000000000000000      0x8aa lib_build/system_XMC4500.o
 .debug_macro   0x0000000000000000       0x22 lib_build/system_XMC4500.o
 .debug_macro   0x0000000000000000       0x35 lib_build/system_XMC4500.o
 .debug_macro   0x0000000000000000       0x9c lib_build/system_XMC4500.o
 .debug_macro   0x0000000000000000      0x16d lib_build/system_XMC4500.o
 .debug_macro   0x0000000000000000       0x58 lib_build/system_XMC4500.o
 .debug_macro   0x0000000000000000       0x1f lib_build/system_XMC4500.o
 .debug_macro   0x0000000000000000       0x43 lib_build/system_XMC4500.o
 .debug_macro   0x0000000000000000       0x20 lib_build/system_XMC4500.o
 .debug_macro   0x0000000000000000      0x187 lib_build/system_XMC4500.o
 .debug_macro   0x0000000000000000      0x353 lib_build/system_XMC4500.o
 .debug_macro   0x0000000000000000       0x10 lib_build/system_XMC4500.o
 .debug_macro   0x0000000000000000       0x35 lib_build/system_XMC4500.o
 .debug_macro   0x0000000000000000       0x2d lib_build/system_XMC4500.o
 .debug_macro   0x0000000000000000       0xef lib_build/system_XMC4500.o
 .debug_macro   0x0000000000000000       0x6a lib_build/system_XMC4500.o
 .debug_macro   0x0000000000000000      0x1df lib_build/system_XMC4500.o
 .debug_macro   0x0000000000000000       0xaf lib_build/system_XMC4500.o
 .debug_macro   0x0000000000000000      0xfe7 lib_build/system_XMC4500.o
 .debug_macro   0x0000000000000000       0x16 lib_build/system_XMC4500.o
 .debug_macro   0x0000000000000000    0x1474b lib_build/system_XMC4500.o
 .comment       0x0000000000000000       0x80 lib_build/system_XMC4500.o
 .group         0x0000000000000000        0x8 lib_build/syscalls.o
 .group         0x0000000000000000        0x8 lib_build/syscalls.o
 .group         0x0000000000000000        0x8 lib_build/syscalls.o
 .group         0x0000000000000000        0x8 lib_build/syscalls.o
 .group         0x0000000000000000        0x8 lib_build/syscalls.o
 .group         0x0000000000000000        0x8 lib_build/syscalls.o
 .group         0x0000000000000000        0x8 lib_build/syscalls.o
 .group         0x0000000000000000        0x8 lib_build/syscalls.o
 .group         0x0000000000000000        0x8 lib_build/syscalls.o
 .group         0x0000000000000000        0x8 lib_build/syscalls.o
 .group         0x0000000000000000        0x8 lib_build/syscalls.o
 .group         0x0000000000000000        0x8 lib_build/syscalls.o
 .group         0x0000000000000000        0x8 lib_build/syscalls.o
 .group         0x0000000000000000        0x8 lib_build/syscalls.o
 .group         0x0000000000000000        0x8 lib_build/syscalls.o
 .group         0x0000000000000000        0x8 lib_build/syscalls.o
 .group         0x0000000000000000        0x8 lib_build/syscalls.o
 .group         0x0000000000000000        0x8 lib_build/syscalls.o
 .group         0x0000000000000000        0x8 lib_build/syscalls.o
 .group         0x0000000000000000        0x8 lib_build/syscalls.o
 .group         0x0000000000000000        0x8 lib_build/syscalls.o
 .group         0x0000000000000000        0x8 lib_build/syscalls.o
 .group         0x0000000000000000        0x8 lib_build/syscalls.o
 .group         0x0000000000000000        0x8 lib_build/syscalls.o
 .group         0x0000000000000000        0x8 lib_build/syscalls.o
 .group         0x0000000000000000        0x8 lib_build/syscalls.o
 .debug_macro   0x0000000000000000      0x8aa lib_build/syscalls.o
 .debug_macro   0x0000000000000000       0x22 lib_build/syscalls.o
 .debug_macro   0x0000000000000000       0x87 lib_build/syscalls.o
 .debug_macro   0x0000000000000000       0x51 lib_build/syscalls.o
 .debug_macro   0x0000000000000000       0xef lib_build/syscalls.o
 .debug_macro   0x0000000000000000       0x6a lib_build/syscalls.o
 .debug_macro   0x0000000000000000      0x1df lib_build/syscalls.o
 .debug_macro   0x0000000000000000       0x58 lib_build/syscalls.o
 .debug_macro   0x0000000000000000       0x35 lib_build/syscalls.o
 .debug_macro   0x0000000000000000       0x9c lib_build/syscalls.o
 .debug_macro   0x0000000000000000      0x16d lib_build/syscalls.o
 .debug_macro   0x0000000000000000       0x58 lib_build/syscalls.o
 .debug_macro   0x0000000000000000       0x1f lib_build/syscalls.o
 .debug_macro   0x0000000000000000       0x43 lib_build/syscalls.o
 .debug_macro   0x0000000000000000       0x20 lib_build/syscalls.o
 .debug_macro   0x0000000000000000      0x187 lib_build/syscalls.o
 .debug_macro   0x0000000000000000      0x353 lib_build/syscalls.o
 .comment       0x0000000000000000       0x80 lib_build/syscalls.o

Memory Configuration

Name             Origin             Length             Attributes
FLASH_1_cached   0x0000000008000000 0x0000000000100000 xr
FLASH_1_uncached 0x000000000c000000 0x0000000000100000 xr
PSRAM_1          0x0000000010000000 0x0000000000010000 !xr
DSRAM_1_system   0x0000000020000000 0x0000000000010000 !xr
DSRAM_2_comm     0x0000000030000000 0x0000000000008000 !xr
*default*        0x0000000000000000 0xffffffffffffffff

Linker script and memory map

LOAD build/ga53keb_PartA.o
LOAD lib_build/xmc_gpio.o
LOAD lib_build/xmc4_gpio.o
LOAD lib_build/startup_XMC4500.o
LOAD lib_build/system_XMC4500.o
LOAD lib_build/syscalls.o
START GROUP
LOAD /usr/bin/../lib/gcc/arm-none-eabi/6.3.1/thumb/v7e-m/libgcc.a
LOAD /usr/bin/../lib/gcc/arm-none-eabi/6.3.1/../../../../arm-none-eabi/lib/thumb/v7e-m/libg.a
LOAD /usr/bin/../lib/gcc/arm-none-eabi/6.3.1/../../../../arm-none-eabi/lib/thumb/v7e-m/libc.a
END GROUP
START GROUP
LOAD /usr/bin/../lib/gcc/arm-none-eabi/6.3.1/thumb/v7e-m/libgcc.a
LOAD /usr/bin/../lib/gcc/arm-none-eabi/6.3.1/../../../../arm-none-eabi/lib/thumb/v7e-m/libc.a
LOAD /usr/bin/../lib/gcc/arm-none-eabi/6.3.1/../../../../arm-none-eabi/lib/thumb/v7e-m/libnosys.a
END GROUP
                0x0000000000000800                stack_size = DEFINED (stack_size)?stack_size:0x800
                0x0000000000000040                no_init_size = 0x40

.text           0x0000000008000000      0xea4 load address 0x000000000c000000
                0x0000000008000000                sText = .
 *(.reset)
 .reset         0x0000000008000000      0x2b2 lib_build/startup_XMC4500.o
                0x0000000008000000                __Vectors
                0x0000000008000200                Reset_Handler
                0x00000000080002b0                VADC0_C0_3_IRQHandler
                0x00000000080002b0                DSD0_7_IRQHandler
                0x00000000080002b0                DebugMon_Handler
                0x00000000080002b0                VADC0_C0_0_IRQHandler
                0x00000000080002b0                CAN0_4_IRQHandler
                0x00000000080002b0                VADC0_G2_0_IRQHandler
                0x00000000080002b0                USIC0_5_IRQHandler
                0x00000000080002b0                POSIF0_0_IRQHandler
                0x00000000080002b0                POSIF1_0_IRQHandler
                0x00000000080002b0                HardFault_Handler
                0x00000000080002b0                VADC0_G1_1_IRQHandler
                0x00000000080002b0                PendSV_Handler
                0x00000000080002b0                NMI_Handler
                0x00000000080002b0                USIC1_3_IRQHandler
                0x00000000080002b0                CCU40_2_IRQHandler
                0x00000000080002b0                SCU_0_IRQHandler
                0x00000000080002b0                ERU0_0_IRQHandler
                0x00000000080002b0                CCU41_0_IRQHandler
                0x00000000080002b0                USIC1_5_IRQHandler
                0x00000000080002b0                DSD0_4_IRQHandler
                0x00000000080002b0                CCU80_1_IRQHandler
                0x00000000080002b0                CCU81_0_IRQHandler
                0x00000000080002b0                UsageFault_Handler
                0x00000000080002b0                USIC0_0_IRQHandler
                0x00000000080002b0                POSIF1_1_IRQHandler
                0x00000000080002b0                ERU0_2_IRQHandler
                0x00000000080002b0                CCU81_1_IRQHandler
                0x00000000080002b0                ERU1_1_IRQHandler
                0x00000000080002b0                VADC0_G2_3_IRQHandler
                0x00000000080002b0                VADC0_G2_2_IRQHandler
                0x00000000080002b0                CCU42_3_IRQHandler
                0x00000000080002b0                ERU0_3_IRQHandler
                0x00000000080002b0                DSD0_5_IRQHandler
                0x00000000080002b0                CAN0_6_IRQHandler
                0x00000000080002b0                CCU43_0_IRQHandler
                0x00000000080002b0                VADC0_G0_1_IRQHandler
                0x00000000080002b0                CCU81_2_IRQHandler
                0x00000000080002b0                USIC2_4_IRQHandler
                0x00000000080002b0                CCU81_3_IRQHandler
                0x00000000080002b0                CCU42_1_IRQHandler
                0x00000000080002b0                USIC1_1_IRQHandler
                0x00000000080002b0                USIC2_5_IRQHandler
                0x00000000080002b0                CCU40_0_IRQHandler
                0x00000000080002b0                CAN0_0_IRQHandler
                0x00000000080002b0                ERU1_0_IRQHandler
                0x00000000080002b0                CCU42_2_IRQHandler
                0x00000000080002b0                Default_Handler
                0x00000000080002b0                USIC1_4_IRQHandler
                0x00000000080002b0                ERU1_3_IRQHandler
                0x00000000080002b0                USIC1_0_IRQHandler
                0x00000000080002b0                POSIF0_1_IRQHandler
                0x00000000080002b0                VADC0_G0_0_IRQHandler
                0x00000000080002b0                DSD0_2_IRQHandler
                0x00000000080002b0                CCU80_3_IRQHandler
                0x00000000080002b0                CCU41_3_IRQHandler
                0x00000000080002b0                CCU80_2_IRQHandler
                0x00000000080002b0                VADC0_G1_3_IRQHandler
                0x00000000080002b0                VADC0_G0_3_IRQHandler
                0x00000000080002b0                GPDMA0_0_IRQHandler
                0x00000000080002b0                PMU0_0_IRQHandler
                0x00000000080002b0                CAN0_7_IRQHandler
                0x00000000080002b0                DSD0_1_IRQHandler
                0x00000000080002b0                CCU41_2_IRQHandler
                0x00000000080002b0                VADC0_C0_1_IRQHandler
                0x00000000080002b0                CCU43_2_IRQHandler
                0x00000000080002b0                USIC2_2_IRQHandler
                0x00000000080002b0                MemManage_Handler
                0x00000000080002b0                VADC0_G3_1_IRQHandler
                0x00000000080002b0                DAC0_0_IRQHandler
                0x00000000080002b0                SVC_Handler
                0x00000000080002b0                VADC0_G3_3_IRQHandler
                0x00000000080002b0                ERU1_2_IRQHandler
                0x00000000080002b0                CCU41_1_IRQHandler
                0x00000000080002b0                DSD0_6_IRQHandler
                0x00000000080002b0                CCU43_1_IRQHandler
                0x00000000080002b0                VADC0_G1_2_IRQHandler
                0x00000000080002b0                USIC2_3_IRQHandler
                0x00000000080002b0                CAN0_2_IRQHandler
                0x00000000080002b0                USIC2_0_IRQHandler
                0x00000000080002b0                VADC0_G0_2_IRQHandler
                0x00000000080002b0                VADC0_G2_1_IRQHandler
                0x00000000080002b0                CAN0_3_IRQHandler
                0x00000000080002b0                ETH0_0_IRQHandler
                0x00000000080002b0                USIC0_3_IRQHandler
                0x00000000080002b0                DSD0_0_IRQHandler
                0x00000000080002b0                VADC0_C0_2_IRQHandler
                0x00000000080002b0                CCU42_0_IRQHandler
                0x00000000080002b0                FCE0_0_IRQHandler
                0x00000000080002b0                VADC0_G1_0_IRQHandler
                0x00000000080002b0                USB0_0_IRQHandler
                0x00000000080002b0                CAN0_5_IRQHandler
                0x00000000080002b0                CCU80_0_IRQHandler
                0x00000000080002b0                CCU40_1_IRQHandler
                0x00000000080002b0                USIC2_1_IRQHandler
                0x00000000080002b0                USIC0_1_IRQHandler
                0x00000000080002b0                VADC0_G3_2_IRQHandler
                0x00000000080002b0                CCU40_3_IRQHandler
                0x00000000080002b0                BusFault_Handler
                0x00000000080002b0                LEDTS0_0_IRQHandler
                0x00000000080002b0                USIC0_4_IRQHandler
                0x00000000080002b0                CCU43_3_IRQHandler
                0x00000000080002b0                ERU0_1_IRQHandler
                0x00000000080002b0                VADC0_G3_0_IRQHandler
                0x00000000080002b0                USIC1_2_IRQHandler
                0x00000000080002b0                DSD0_3_IRQHandler
                0x00000000080002b0                SDMMC0_0_IRQHandler
                0x00000000080002b0                CAN0_1_IRQHandler
                0x00000000080002b0                USIC0_2_IRQHandler
                0x00000000080002b0                DAC0_1_IRQHandler
                0x00000000080002b0                GPDMA1_0_IRQHandler
 *(.text .text.* .gnu.linkonce.t.*)
 .text          0x00000000080002b2        0x0 build/ga53keb_PartA.o
 *fill*         0x00000000080002b2        0x2 
 .text.__NVIC_SetPriority
                0x00000000080002b4       0x54 build/ga53keb_PartA.o
 .text.SysTick_Config
                0x0000000008000308       0x44 build/ga53keb_PartA.o
 .text.XMC_GPIO_SetOutputHigh
                0x000000000800034c       0x22 build/ga53keb_PartA.o
 .text.XMC_GPIO_SetOutputLow
                0x000000000800036e       0x24 build/ga53keb_PartA.o
 *fill*         0x0000000008000392        0x2 
 .text.displayThis
                0x0000000008000394      0x1a8 build/ga53keb_PartA.o
                0x0000000008000394                displayThis
 .text.flashLED
                0x000000000800053c       0x70 build/ga53keb_PartA.o
                0x000000000800053c                flashLED
 .text.SysTick_Handler
                0x00000000080005ac       0x1c build/ga53keb_PartA.o
                0x00000000080005ac                SysTick_Handler
 .text.millis   0x00000000080005c8       0x18 build/ga53keb_PartA.o
 .text.delay    0x00000000080005e0       0x5c build/ga53keb_PartA.o
                0x00000000080005e0                delay
 .text.main     0x000000000800063c       0x4c build/ga53keb_PartA.o
                0x000000000800063c                main
 .text          0x0000000008000688        0x0 lib_build/xmc_gpio.o
 .text.XMC_GPIO_SetMode
                0x0000000008000688       0x82 lib_build/xmc_gpio.o
                0x0000000008000688                XMC_GPIO_SetMode
 .text.XMC_GPIO_SetHardwareControl
                0x000000000800070a       0x46 lib_build/xmc_gpio.o
                0x000000000800070a                XMC_GPIO_SetHardwareControl
 .text          0x0000000008000750        0x0 lib_build/xmc4_gpio.o
 .text.XMC_GPIO_Init
                0x0000000008000750      0x144 lib_build/xmc4_gpio.o
                0x0000000008000750                XMC_GPIO_Init
 .text.XMC_GPIO_SetOutputStrength
                0x0000000008000894       0x86 lib_build/xmc4_gpio.o
                0x0000000008000894                XMC_GPIO_SetOutputStrength
 .text          0x000000000800091a        0x0 lib_build/startup_XMC4500.o
 .text          0x000000000800091a        0x0 lib_build/system_XMC4500.o
 .text.delay    0x000000000800091a       0x2a lib_build/system_XMC4500.o
 .text.SystemInit
                0x0000000008000944       0x24 lib_build/system_XMC4500.o
                0x0000000008000944                SystemInit
 .text.SystemCoreSetup
                0x0000000008000968       0x70 lib_build/system_XMC4500.o
                0x0000000008000968                SystemCoreSetup
 .text.SystemCoreClockSetup
                0x00000000080009d8      0x208 lib_build/system_XMC4500.o
                0x00000000080009d8                SystemCoreClockSetup
 .text.SystemCoreClockUpdate
                0x0000000008000be0       0xd4 lib_build/system_XMC4500.o
                0x0000000008000be0                SystemCoreClockUpdate
 .text.OSCHP_GetFrequency
                0x0000000008000cb4       0x14 lib_build/system_XMC4500.o
                0x0000000008000cb4                OSCHP_GetFrequency
 .text          0x0000000008000cc8        0x0 lib_build/syscalls.o
 .text._sbrk    0x0000000008000cc8       0x68 lib_build/syscalls.o
                0x0000000008000cc8                _sbrk
 .text._init    0x0000000008000d30        0xe lib_build/syscalls.o
                0x0000000008000d30                _init
 .text          0x0000000008000d3e        0x0 /usr/bin/../lib/gcc/arm-none-eabi/6.3.1/../../../../arm-none-eabi/lib/thumb/v7e-m/libg.a(lib_a-errno.o)
 *fill*         0x0000000008000d3e        0x2 
 .text.__errno  0x0000000008000d40        0xc /usr/bin/../lib/gcc/arm-none-eabi/6.3.1/../../../../arm-none-eabi/lib/thumb/v7e-m/libg.a(lib_a-errno.o)
                0x0000000008000d40                __errno
 .text          0x0000000008000d4c        0x0 /usr/bin/../lib/gcc/arm-none-eabi/6.3.1/../../../../arm-none-eabi/lib/thumb/v7e-m/libg.a(lib_a-impure.o)
 .text          0x0000000008000d4c        0x0 /usr/bin/../lib/gcc/arm-none-eabi/6.3.1/../../../../arm-none-eabi/lib/thumb/v7e-m/libg.a(lib_a-init.o)
 .text.__libc_init_array
                0x0000000008000d4c       0x50 /usr/bin/../lib/gcc/arm-none-eabi/6.3.1/../../../../arm-none-eabi/lib/thumb/v7e-m/libg.a(lib_a-init.o)
                0x0000000008000d4c                __libc_init_array
 *(.init)
 *(.fini)
 *crtbegin.o(.ctors)
 *crtbegin?.o(.ctors)
 *(EXCLUDE_FILE(*crtend.o *crtend?.o) .ctors)
 *(SORT(.ctors.*))
 *(.ctors)
 *crtbegin.o(.dtors)
 *crtbegin?.o(.dtors)
 *(EXCLUDE_FILE(*crtend.o *crtend?.o) .dtors)
 *(SORT(.dtors.*))
 *(.dtors)
 *(.rodata .rodata.*)
 .rodata        0x0000000008000d9c      0x104 build/ga53keb_PartA.o
 .rodata._global_impure_ptr
                0x0000000008000ea0        0x4 /usr/bin/../lib/gcc/arm-none-eabi/6.3.1/../../../../arm-none-eabi/lib/thumb/v7e-m/libg.a(lib_a-impure.o)
                0x0000000008000ea0                _global_impure_ptr
 *(.gnu.linkonce.r*)
 *(vtable)
                0x0000000008000ea4                . = ALIGN (0x4)

.glue_7         0x0000000008000ea4        0x0 load address 0x000000000c000ea4
 .glue_7        0x0000000008000ea4        0x0 linker stubs

.glue_7t        0x0000000008000ea4        0x0 load address 0x000000000c000ea4
 .glue_7t       0x0000000008000ea4        0x0 linker stubs

.vfp11_veneer   0x0000000008000ea4        0x0 load address 0x000000000c000ea4
 .vfp11_veneer  0x0000000008000ea4        0x0 linker stubs

.v4_bx          0x0000000008000ea4        0x0 load address 0x000000000c000ea4
 .v4_bx         0x0000000008000ea4        0x0 linker stubs

.iplt           0x0000000008000ea4        0x0 load address 0x000000000c000ea4
 .iplt          0x0000000008000ea4        0x0 build/ga53keb_PartA.o

.rel.dyn        0x0000000008000ea4        0x0 load address 0x000000000c000ea4
 .rel.iplt      0x0000000008000ea4        0x0 build/ga53keb_PartA.o

.eh_frame_hdr
 *(.eh_frame_hdr)

.eh_frame
 *(.eh_frame)

.ARM.extab
 *(.ARM.extab* .gnu.linkonce.armextab.*)
                0x0000000008000ea4                . = ALIGN (0x4)
                0x0000000008000ea4                __exidx_start = .

.ARM.exidx
 *(.ARM.exidx* .gnu.linkonce.armexidx.*)
                0x0000000008000ea4                __exidx_end = .
                0x0000000008000ea4                . = ALIGN (0x4)

Stack           0x0000000010000000      0x800
                0x0000000010000000                __stack_start = .
                0x0000000010000800                . = (. + stack_size)
 *fill*         0x0000000010000000      0x800 
                0x0000000010000800                __stack_end = .
                0x0000000010000800                __initial_sp = .

.ram_code       0x0000000010000800        0x0 load address 0x000000000c000ea4
                0x0000000010000800                . = ALIGN (0x4)
                0x0000000010000800                __ram_code_start = .
 *(.ram_code)
                0x0000000010000800                . = ALIGN (0x4)
                0x0000000010000800                __ram_code_end = .
                0x000000000c000ea4                __ram_code_load = LOADADDR (.ram_code)
                0x0000000000000000                __ram_code_size = (__ram_code_end - __ram_code_start)

PSRAM_DATA      0x0000000010000800        0x0 load address 0x000000000c000ea4
                0x0000000010000800                . = ALIGN (0x4)
                0x0000000010000800                __data3_start = .
 *(PSRAM_DATA)
                0x0000000010000800                . = ALIGN (0x4)
                0x0000000010000800                __data3_end = .
                0x000000000c000ea4                __data3_load = LOADADDR (PSRAM_DATA)
                0x0000000000000000                __data3_size = (__data3_end - __data3_start)

PSRAM_BSS       0x0000000010000800        0x0 load address 0x000000000c000ea4
                0x0000000010000800                . = ALIGN (0x4)
                0x0000000010000800                __bss3_start = .
 *(PSRAM_BSS)
                0x0000000010000800                . = ALIGN (0x4)
                0x0000000010000800                __bss3_end = .
                0x0000000010000800                . = ALIGN (0x8)
                0x0000000010000800                Heap_Bank3_Start = .
                0x0000000000000000                __bss3_size = (__bss3_end - __bss3_start)

.data           0x0000000020000000      0x4c8 load address 0x000000000c000ea4
                0x0000000020000000                . = ALIGN (0x4)
                0x0000000020000000                __data_start = .
 *(.data)
 .data          0x0000000020000000       0x98 build/ga53keb_PartA.o
                0x0000000020000000                dotsNdashes
 .data          0x0000000020000098        0x0 lib_build/xmc_gpio.o
 .data          0x0000000020000098        0x0 lib_build/xmc4_gpio.o
 .data          0x0000000020000098        0x0 lib_build/startup_XMC4500.o
 .data          0x0000000020000098        0x0 lib_build/system_XMC4500.o
 .data          0x0000000020000098        0x0 lib_build/syscalls.o
 .data          0x0000000020000098        0x0 /usr/bin/../lib/gcc/arm-none-eabi/6.3.1/../../../../arm-none-eabi/lib/thumb/v7e-m/libg.a(lib_a-errno.o)
 .data          0x0000000020000098        0x0 /usr/bin/../lib/gcc/arm-none-eabi/6.3.1/../../../../arm-none-eabi/lib/thumb/v7e-m/libg.a(lib_a-impure.o)
 .data          0x0000000020000098        0x0 /usr/bin/../lib/gcc/arm-none-eabi/6.3.1/../../../../arm-none-eabi/lib/thumb/v7e-m/libg.a(lib_a-init.o)
 *(.data*)
 .data._impure_ptr
                0x0000000020000098        0x4 /usr/bin/../lib/gcc/arm-none-eabi/6.3.1/../../../../arm-none-eabi/lib/thumb/v7e-m/libg.a(lib_a-impure.o)
                0x0000000020000098                _impure_ptr
 *fill*         0x000000002000009c        0x4 
 .data.impure_data
                0x00000000200000a0      0x428 /usr/bin/../lib/gcc/arm-none-eabi/6.3.1/../../../../arm-none-eabi/lib/thumb/v7e-m/libg.a(lib_a-impure.o)
 *(*.data)
 *(.gnu.linkonce.d*)
                0x00000000200004c8                . = ALIGN (0x4)
                0x00000000200004c8                PROVIDE (__preinit_array_start, .)
 *(.preinit_array)
                0x00000000200004c8                PROVIDE (__preinit_array_end, .)
                0x00000000200004c8                . = ALIGN (0x4)
                0x00000000200004c8                PROVIDE (__init_array_start, .)
 *(SORT(.init_array.*))
 *(.init_array)
                0x00000000200004c8                PROVIDE (__init_array_end, .)
                0x00000000200004c8                . = ALIGN (0x4)
                [!provide]                        PROVIDE (__fini_array_start, .)
 *(SORT(.fini_array.*))
 *(.fini_array)
                [!provide]                        PROVIDE (__fini_array_end, .)
                0x00000000200004c8                . = ALIGN (0x4)
                0x00000000200004c8                __data_end = .
                0x000000000c000ea4                __data_load = LOADADDR (.data)
                0x00000000000004c8                __data_size = (__data_end - __data_start)

.igot.plt       0x00000000200004c8        0x0 load address 0x000000000c00136c
 .igot.plt      0x00000000200004c8        0x0 build/ga53keb_PartA.o

.bss            0x00000000200004c8       0x10 load address 0x000000000c00136c
                0x00000000200004c8                . = ALIGN (0x4)
                0x00000000200004c8                __bss_start = .
 *(.bss)
 .bss           0x00000000200004c8        0x4 build/ga53keb_PartA.o
 .bss           0x00000000200004cc        0x0 lib_build/xmc_gpio.o
 .bss           0x00000000200004cc        0x0 lib_build/xmc4_gpio.o
 .bss           0x00000000200004cc        0x0 lib_build/startup_XMC4500.o
 .bss           0x00000000200004cc        0x0 lib_build/system_XMC4500.o
 .bss           0x00000000200004cc        0x8 lib_build/syscalls.o
                0x00000000200004cc                __dso_handle
 .bss           0x00000000200004d4        0x0 /usr/bin/../lib/gcc/arm-none-eabi/6.3.1/../../../../arm-none-eabi/lib/thumb/v7e-m/libg.a(lib_a-errno.o)
 .bss           0x00000000200004d4        0x0 /usr/bin/../lib/gcc/arm-none-eabi/6.3.1/../../../../arm-none-eabi/lib/thumb/v7e-m/libg.a(lib_a-impure.o)
 .bss           0x00000000200004d4        0x0 /usr/bin/../lib/gcc/arm-none-eabi/6.3.1/../../../../arm-none-eabi/lib/thumb/v7e-m/libg.a(lib_a-init.o)
 *(.bss*)
 *(COMMON)
 *(.gnu.linkonce.b*)
                0x00000000200004d4                . = ALIGN (0x4)
                0x00000000200004d4                __bss_end = .
                0x00000000200004d8                . = ALIGN (0x8)
 *fill*         0x00000000200004d4        0x4 
                0x00000000200004d8                Heap_Bank1_Start = .
                0x000000000000000c                __bss_size = (__bss_end - __bss_start)

.no_init        0x000000002000ffc0       0x14
                0x000000002000ffc0                Heap_Bank1_End = .
 *(.no_init)
 .no_init       0x000000002000ffc0       0x14 lib_build/system_XMC4500.o
                0x000000002000ffc0                SystemCoreClock
                0x000000002000ffc4                g_chipid

DSRAM2_DATA     0x0000000030000000        0x0 load address 0x000000000c00136c
                0x0000000030000000                . = ALIGN (0x4)
                0x0000000030000000                __data2_start = .
 *(DSRAM2_DATA)
                0x0000000030000000                . = ALIGN (0x4)
                0x0000000030000000                __data2_end = .
                0x000000000c00136c                __data2_load = LOADADDR (DSRAM2_DATA)
                0x0000000000000000                __data2_size = (__data2_end - __data2_start)
                0x000000000000136c                __text_size = (((((__exidx_end - sText) + __data_size) + __ram_code_size) + __data2_size) + __data3_size)
                0x000000000800136c                eText = (sText + __text_size)

DSRAM2_BSS      0x0000000030000000        0x0 load address 0x000000000c00136c
                0x0000000030000000                . = ALIGN (0x4)
                0x0000000030000000                __bss2_start = .
 *(ETH_RAM)
 *(USB_RAM)
 *(DSRAM2_BSS)
                0x0000000030000000                . = ALIGN (0x4)
                0x0000000030000000                __bss2_end = .
                0x0000000030000000                . = ALIGN (0x8)
                0x0000000030000000                Heap_Bank2_Start = .
                0x0000000000000000                __bss2_size = (__bss2_end - __bss2_start)
                0x000000000000fae8                Heap_Bank1_Size = (Heap_Bank1_End - Heap_Bank1_Start)
                0x0000000000008000                Heap_Bank2_Size = (LENGTH (DSRAM_2_comm) - (Heap_Bank2_Start - ORIGIN (DSRAM_2_comm)))
                0x000000000000f800                Heap_Bank3_Size = (LENGTH (PSRAM_1) - (Heap_Bank3_Start - ORIGIN (PSRAM_1)))
                0x0000000000000001                ASSERT ((Heap_Bank1_Start <= Heap_Bank1_End), region SRAM_combined overflowed no_init section)

/DISCARD/
 *(.comment)

.stab
 *(.stab)

.stabstr
 *(.stabstr)

.debug
 *(.debug)

.line
 *(.line)

.debug_srcinfo
 *(.debug_srcinfo)

.debug_sfnames
 *(.debug_sfnames)

.debug_aranges  0x0000000000000000      0x148
 *(.debug_aranges)
 .debug_aranges
                0x0000000000000000       0x68 build/ga53keb_PartA.o
 .debug_aranges
                0x0000000000000068       0x28 lib_build/xmc_gpio.o
 .debug_aranges
                0x0000000000000090       0x28 lib_build/xmc4_gpio.o
 .debug_aranges
                0x00000000000000b8       0x20 lib_build/startup_XMC4500.o
 .debug_aranges
                0x00000000000000d8       0x48 lib_build/system_XMC4500.o
 .debug_aranges
                0x0000000000000120       0x28 lib_build/syscalls.o

.debug_pubnames
 *(.debug_pubnames)

.debug_pubtypes
 *(.debug_pubtypes)

.debug_info     0x0000000000000000     0x4c5f
 *(.debug_info .gnu.linkonce.wi.*)
 .debug_info    0x0000000000000000     0x1581 build/ga53keb_PartA.o
 .debug_info    0x0000000000001581      0xcc7 lib_build/xmc_gpio.o
 .debug_info    0x0000000000002248      0xd55 lib_build/xmc4_gpio.o
 .debug_info    0x0000000000002f9d       0xb8 lib_build/startup_XMC4500.o
 .debug_info    0x0000000000003055     0x11cd lib_build/system_XMC4500.o
 .debug_info    0x0000000000004222      0xa3d lib_build/syscalls.o

.debug_abbrev   0x0000000000000000      0xb7d
 *(.debug_abbrev)
 .debug_abbrev  0x0000000000000000      0x331 build/ga53keb_PartA.o
 .debug_abbrev  0x0000000000000331      0x1f4 lib_build/xmc_gpio.o
 .debug_abbrev  0x0000000000000525      0x1e5 lib_build/xmc4_gpio.o
 .debug_abbrev  0x000000000000070a       0x14 lib_build/startup_XMC4500.o
 .debug_abbrev  0x000000000000071e      0x285 lib_build/system_XMC4500.o
 .debug_abbrev  0x00000000000009a3      0x1da lib_build/syscalls.o

.debug_line     0x0000000000000000     0x1312
 *(.debug_line)
 .debug_line    0x0000000000000000      0x4a0 build/ga53keb_PartA.o
 .debug_line    0x00000000000004a0      0x37f lib_build/xmc_gpio.o
 .debug_line    0x000000000000081f      0x391 lib_build/xmc4_gpio.o
 .debug_line    0x0000000000000bb0       0xd1 lib_build/startup_XMC4500.o
 .debug_line    0x0000000000000c81      0x3f7 lib_build/system_XMC4500.o
 .debug_line    0x0000000000001078      0x29a lib_build/syscalls.o

.debug_frame    0x0000000000000000      0x3e0
 *(.debug_frame)
 .debug_frame   0x0000000000000000      0x18c build/ga53keb_PartA.o
 .debug_frame   0x000000000000018c       0x60 lib_build/xmc_gpio.o
 .debug_frame   0x00000000000001ec       0x60 lib_build/xmc4_gpio.o
 .debug_frame   0x000000000000024c       0xec lib_build/system_XMC4500.o
 .debug_frame   0x0000000000000338       0x5c lib_build/syscalls.o
 .debug_frame   0x0000000000000394       0x20 /usr/bin/../lib/gcc/arm-none-eabi/6.3.1/../../../../arm-none-eabi/lib/thumb/v7e-m/libg.a(lib_a-errno.o)
 .debug_frame   0x00000000000003b4       0x2c /usr/bin/../lib/gcc/arm-none-eabi/6.3.1/../../../../arm-none-eabi/lib/thumb/v7e-m/libg.a(lib_a-init.o)

.debug_str      0x0000000000000000    0x75689
 *(.debug_str)
 .debug_str     0x0000000000000000    0x736cf build/ga53keb_PartA.o
                                      0x739a0 (size before relaxing)
 .debug_str     0x00000000000736cf       0xe8 lib_build/xmc_gpio.o
                                      0x731ef (size before relaxing)
 .debug_str     0x00000000000737b7      0x162 lib_build/xmc4_gpio.o
                                      0x73374 (size before relaxing)
 .debug_str     0x0000000000073919      0xe02 lib_build/system_XMC4500.o
                                      0x6fa60 (size before relaxing)
 .debug_str     0x000000000007471b      0xf6e lib_build/syscalls.o
                                       0x72ed (size before relaxing)

.debug_loc      0x0000000000000000      0x6b0
 *(.debug_loc)
 .debug_loc     0x0000000000000000      0x308 build/ga53keb_PartA.o
 .debug_loc     0x0000000000000308       0xb8 lib_build/xmc_gpio.o
 .debug_loc     0x00000000000003c0       0xb8 lib_build/xmc4_gpio.o
 .debug_loc     0x0000000000000478      0x1a4 lib_build/system_XMC4500.o
 .debug_loc     0x000000000000061c       0x94 lib_build/syscalls.o

.debug_macinfo
 *(.debug_macinfo)

.debug_ranges   0x0000000000000000       0xf0
 *(.debug_ranges)
 .debug_ranges  0x0000000000000000       0x70 build/ga53keb_PartA.o
 .debug_ranges  0x0000000000000070       0x18 lib_build/xmc_gpio.o
 .debug_ranges  0x0000000000000088       0x18 lib_build/xmc4_gpio.o
 .debug_ranges  0x00000000000000a0       0x38 lib_build/system_XMC4500.o
 .debug_ranges  0x00000000000000d8       0x18 lib_build/syscalls.o

.debug_weaknames
 *(.debug_weaknames)

.debug_funcnames
 *(.debug_funcnames)

.debug_typenames
 *(.debug_typenames)

.debug_varnames
 *(.debug_varnames)

.build_attributes
                0x0000000000000000      0x1c2
 *(.ARM.attributes)
 .ARM.attributes
                0x0000000000000000       0x37 build/ga53keb_PartA.o
 .ARM.attributes
                0x0000000000000037       0x37 lib_build/xmc_gpio.o
 .ARM.attributes
                0x000000000000006e       0x37 lib_build/xmc4_gpio.o
 .ARM.attributes
                0x00000000000000a5       0x25 lib_build/startup_XMC4500.o
 .ARM.attributes
                0x00000000000000ca       0x37 lib_build/system_XMC4500.o
 .ARM.attributes
                0x0000000000000101       0x37 lib_build/syscalls.o
 .ARM.attributes
                0x0000000000000138       0x2e /usr/bin/../lib/gcc/arm-none-eabi/6.3.1/../../../../arm-none-eabi/lib/thumb/v7e-m/libg.a(lib_a-errno.o)
 .ARM.attributes
                0x0000000000000166       0x2e /usr/bin/../lib/gcc/arm-none-eabi/6.3.1/../../../../arm-none-eabi/lib/thumb/v7e-m/libg.a(lib_a-impure.o)
 .ARM.attributes
                0x0000000000000194       0x2e /usr/bin/../lib/gcc/arm-none-eabi/6.3.1/../../../../arm-none-eabi/lib/thumb/v7e-m/libg.a(lib_a-init.o)
OUTPUT(build/main.elf elf32-littlearm)

.debug_macro    0x0000000000000000    0x187f1
 .debug_macro   0x0000000000000000      0x1bb build/ga53keb_PartA.o
 .debug_macro   0x00000000000001bb      0x8aa build/ga53keb_PartA.o
 .debug_macro   0x0000000000000a65      0x16d build/ga53keb_PartA.o
 .debug_macro   0x0000000000000bd2       0x22 build/ga53keb_PartA.o
 .debug_macro   0x0000000000000bf4       0x87 build/ga53keb_PartA.o
 .debug_macro   0x0000000000000c7b       0x51 build/ga53keb_PartA.o
 .debug_macro   0x0000000000000ccc       0xef build/ga53keb_PartA.o
 .debug_macro   0x0000000000000dbb       0x6a build/ga53keb_PartA.o
 .debug_macro   0x0000000000000e25      0x1df build/ga53keb_PartA.o
 .debug_macro   0x0000000000001004       0x22 build/ga53keb_PartA.o
 .debug_macro   0x0000000000001026       0x58 build/ga53keb_PartA.o
 .debug_macro   0x000000000000107e       0x35 build/ga53keb_PartA.o
 .debug_macro   0x00000000000010b3       0x9c build/ga53keb_PartA.o
 .debug_macro   0x000000000000114f       0x58 build/ga53keb_PartA.o
 .debug_macro   0x00000000000011a7       0x1f build/ga53keb_PartA.o
 .debug_macro   0x00000000000011c6       0x43 build/ga53keb_PartA.o
 .debug_macro   0x0000000000001209       0x20 build/ga53keb_PartA.o
 .debug_macro   0x0000000000001229      0x187 build/ga53keb_PartA.o
 .debug_macro   0x00000000000013b0      0x353 build/ga53keb_PartA.o
 .debug_macro   0x0000000000001703       0x10 build/ga53keb_PartA.o
 .debug_macro   0x0000000000001713       0x35 build/ga53keb_PartA.o
 .debug_macro   0x0000000000001748      0x167 build/ga53keb_PartA.o
 .debug_macro   0x00000000000018af       0x2d build/ga53keb_PartA.o
 .debug_macro   0x00000000000018dc       0x28 build/ga53keb_PartA.o
 .debug_macro   0x0000000000001904       0xaf build/ga53keb_PartA.o
 .debug_macro   0x00000000000019b3      0xfe7 build/ga53keb_PartA.o
 .debug_macro   0x000000000000299a       0x16 build/ga53keb_PartA.o
 .debug_macro   0x00000000000029b0    0x1474b build/ga53keb_PartA.o
 .debug_macro   0x00000000000170fb       0x12 build/ga53keb_PartA.o
 .debug_macro   0x000000000001710d       0x4c build/ga53keb_PartA.o
 .debug_macro   0x0000000000017159       0x22 build/ga53keb_PartA.o
 .debug_macro   0x000000000001717b      0x861 build/ga53keb_PartA.o
 .debug_macro   0x00000000000179dc       0xa5 build/ga53keb_PartA.o
 .debug_macro   0x0000000000017a81      0x1af lib_build/xmc_gpio.o
 .debug_macro   0x0000000000017c30      0x1bb lib_build/xmc4_gpio.o
 .debug_macro   0x0000000000017deb      0x2fa lib_build/system_XMC4500.o
 .debug_macro   0x00000000000180e5       0x52 lib_build/system_XMC4500.o
 .debug_macro   0x0000000000018137       0x8d lib_build/system_XMC4500.o
 .debug_macro   0x00000000000181c4       0x57 lib_build/system_XMC4500.o
 .debug_macro   0x000000000001821b       0x22 lib_build/system_XMC4500.o
 .debug_macro   0x000000000001823d      0x184 lib_build/syscalls.o
 .debug_macro   0x00000000000183c1       0x10 lib_build/syscalls.o
 .debug_macro   0x00000000000183d1      0x23b lib_build/syscalls.o
 .debug_macro   0x000000000001860c       0x10 lib_build/syscalls.o
 .debug_macro   0x000000000001861c       0x1c lib_build/syscalls.o
 .debug_macro   0x0000000000018638       0x52 lib_build/syscalls.o
 .debug_macro   0x000000000001868a       0x40 lib_build/syscalls.o
 .debug_macro   0x00000000000186ca       0x10 lib_build/syscalls.o
 .debug_macro   0x00000000000186da       0x40 lib_build/syscalls.o
 .debug_macro   0x000000000001871a       0xd7 lib_build/syscalls.o
